target datalayout = "e-m:e-p270:32:32-p271:32:32-p272:64:64-i64:64-i128:128-f80:128-n8:16:32:64-S128"
target triple = "x86_64-pc-linux-gnu"

%struct.uv_semaphore_s = type { %union.pthread_mutex_t, %union.pthread_cond_t, i32 }
%union.pthread_mutex_t = type { %struct.__pthread_mutex_s }
%struct.__pthread_mutex_s = type { i32, i32, i32, i32, i32, i16, i16, %struct.__pthread_internal_list }
%struct.__pthread_internal_list = type { ptr, ptr }
%union.pthread_cond_t = type { %struct.__pthread_cond_s }
%struct.__pthread_cond_s = type { %union.__atomic_wide_counter, %union.__atomic_wide_counter, [2 x i32], [2 x i32], i32, i32, [2 x i32] }
%union.__atomic_wide_counter = type { i64 }

@platform_needs_custom_semaphore = internal global i32 0, align 4

; Function Attrs: nounwind uwtable
define dso_local void @uv_mutex_unlock(ptr noundef %0) #0 {
  %2 = alloca ptr, align 8
  store ptr %0, ptr %2, align 8, !tbaa !4
  %3 = load ptr, ptr %2, align 8, !tbaa !4
  %4 = call i32 @pthread_mutex_unlock(ptr noundef %3) #8
  %5 = icmp ne i32 %4, 0
  br i1 %5, label %6, label %7

6:                                                ; preds = %1
  call void @abort() #9
  unreachable

7:                                                ; preds = %1
  ret void
}

; Function Attrs: nounwind uwtable
define dso_local void @uv_cond_signal(ptr noundef %0) #0 {
  %2 = alloca ptr, align 8
  store ptr %0, ptr %2, align 8, !tbaa !4
  %3 = load ptr, ptr %2, align 8, !tbaa !4
  %4 = call i32 @pthread_cond_signal(ptr noundef %3) #8
  %5 = icmp ne i32 %4, 0
  br i1 %5, label %6, label %7

6:                                                ; preds = %1
  call void @abort() #9
  unreachable

7:                                                ; preds = %1
  ret void
}

; Function Attrs: nounwind uwtable
define dso_local void @uv_mutex_lock(ptr noundef %0) #0 {
  %2 = alloca ptr, align 8
  store ptr %0, ptr %2, align 8, !tbaa !4
  %3 = load ptr, ptr %2, align 8, !tbaa !4
  %4 = call i32 @pthread_mutex_lock(ptr noundef %3) #8
  %5 = icmp ne i32 %4, 0
  br i1 %5, label %6, label %7

6:                                                ; preds = %1
  call void @abort() #9
  unreachable

7:                                                ; preds = %1
  ret void
}

; Function Attrs: nounwind uwtable
define internal void @uv__sem_post(ptr noundef %0) #0 {
  %2 = alloca ptr, align 8
  store ptr %0, ptr %2, align 8, !tbaa !4
  %3 = load ptr, ptr %2, align 8, !tbaa !4
  %4 = call i32 @sem_post(ptr noundef %3) #8
  %5 = icmp ne i32 %4, 0
  br i1 %5, label %6, label %7

6:                                                ; preds = %1
  call void @abort() #9
  unreachable

7:                                                ; preds = %1
  ret void
}

; Function Attrs: nounwind uwtable
define internal void @uv__custom_sem_post(ptr noundef %0) #0 {
  %2 = alloca ptr, align 8
  %3 = alloca ptr, align 8
  store ptr %0, ptr %2, align 8, !tbaa !4
  call void @llvm.lifetime.start.p0(i64 8, ptr %3) #8
  %4 = load ptr, ptr %2, align 8, !tbaa !4
  %5 = load ptr, ptr %4, align 8, !tbaa !28
  store ptr %5, ptr %3, align 8, !tbaa !28
  %6 = load ptr, ptr %3, align 8, !tbaa !28
  %7 = getelementptr inbounds nuw %struct.uv_semaphore_s, ptr %6, i32 0, i32 0
  call void @uv_mutex_lock(ptr noundef %7)
  %8 = load ptr, ptr %3, align 8, !tbaa !28
  %9 = getelementptr inbounds nuw %struct.uv_semaphore_s, ptr %8, i32 0, i32 2
  %10 = load i32, ptr %9, align 8, !tbaa !30
  %11 = add i32 %10, 1
  store i32 %11, ptr %9, align 8, !tbaa !30
  %12 = load ptr, ptr %3, align 8, !tbaa !28
  %13 = getelementptr inbounds nuw %struct.uv_semaphore_s, ptr %12, i32 0, i32 2
  %14 = load i32, ptr %13, align 8, !tbaa !30
  %15 = icmp eq i32 %14, 1
  br i1 %15, label %16, label %19

16:                                               ; preds = %1
  %17 = load ptr, ptr %3, align 8, !tbaa !28
  %18 = getelementptr inbounds nuw %struct.uv_semaphore_s, ptr %17, i32 0, i32 1
  call void @uv_cond_signal(ptr noundef %18)
  br label %19

19:                                               ; preds = %16, %1
  %20 = load ptr, ptr %3, align 8, !tbaa !28
  %21 = getelementptr inbounds nuw %struct.uv_semaphore_s, ptr %20, i32 0, i32 0
  call void @uv_mutex_unlock(ptr noundef %21)
  call void @llvm.lifetime.end.p0(i64 8, ptr %3) #8
  ret void
}

; Function Attrs: nounwind uwtable
define dso_local void @uv_sem_post(ptr noundef %0) #0 {
  %2 = alloca ptr, align 8
  store ptr %0, ptr %2, align 8, !tbaa !4
  %3 = load i32, ptr @platform_needs_custom_semaphore, align 4, !tbaa !8
  %4 = icmp ne i32 %3, 0
  br i1 %4, label %5, label %7

5:                                                ; preds = %1
  %6 = load ptr, ptr %2, align 8, !tbaa !4
  call void @uv__custom_sem_post(ptr noundef %6)
  br label %9

7:                                                ; preds = %1
  %8 = load ptr, ptr %2, align 8, !tbaa !4
  call void @uv__sem_post(ptr noundef %8)
  br label %9

9:                                                ; preds = %7, %5
  ret void
}