; Function Attrs: nounwind uwtable
define dso_local void @uv_sem_post(ptr noundef %0) local_unnamed_addr #0 {
  %2 = load i32, ptr @platform_needs_custom_semaphore, align 4, !tbaa !14
  %.not = icmp eq i32 %2, 0
  br i1 %.not, label %16, label %3

3:                                                ; preds = %1
  %.val = load ptr, ptr %0, align 8, !tbaa !17
  %4 = tail call i32 @pthread_mutex_lock(ptr noundef %.val) #10
  %.not.i.i = icmp eq i32 %4, 0
  br i1 %.not.i.i, label %uv_mutex_lock.exit.i, label %5

5:                                                ; preds = %3
  tail call void @abort() #11
  unreachable

uv_mutex_lock.exit.i:                             ; preds = %3
  %6 = getelementptr inbounds nuw i8, ptr %.val, i64 88
  %7 = load i32, ptr %6, align 8, !tbaa !15
  %8 = add i32 %7, 1
  store i32 %8, ptr %6, align 8, !tbaa !15
  %9 = icmp eq i32 %7, 0
  br i1 %9, label %10, label %uv_cond_signal.exit.i

10:                                               ; preds = %uv_mutex_lock.exit.i
  %11 = getelementptr inbounds nuw i8, ptr %.val, i64 40
  %12 = tail call i32 @pthread_cond_signal(ptr noundef nonnull %11) #10
  %.not.i6.i = icmp eq i32 %12, 0
  br i1 %.not.i6.i, label %uv_cond_signal.exit.i, label %13

13:                                               ; preds = %10
  tail call void @abort() #11
  unreachable

uv_cond_signal.exit.i:                            ; preds = %10, %uv_mutex_lock.exit.i
  %14 = tail call i32 @pthread_mutex_unlock(ptr noundef nonnull %.val) #10
  %.not.i7.i = icmp eq i32 %14, 0
  br i1 %.not.i7.i, label %uv__custom_sem_post.exit, label %15

15:                                               ; preds = %uv_cond_signal.exit.i
  tail call void @abort() #11
  unreachable

16:                                               ; preds = %1
  %17 = tail call i32 @sem_post(ptr noundef %0) #10
  %.not.i = icmp eq i32 %17, 0
  br i1 %.not.i, label %uv__custom_sem_post.exit, label %18

18:                                               ; preds = %16
  tail call void @abort() #11
  unreachable

uv__custom_sem_post.exit:                         ; preds = %16, %uv_cond_signal.exit.i
  ret void
}